target datalayout = "e-m:e-p270:32:32-p271:32:32-p272:64:64-i64:64-i128:128-f80:128-n8:16:32:64-S128"
target triple = "x86_64-pc-linux-gnu"

%"class.cv::CvCapture_Images" = type <{ %"class.cv::IVideoCapture", %"class.std::__cxx11::basic_string", i32, i32, i32, [4 x i8], %"class.cv::Mat", i8, [7 x i8] }>
%"class.cv::IVideoCapture" = type { ptr }
%"class.std::__cxx11::basic_string" = type { %"struct.std::__cxx11::basic_string<char>::_Alloc_hider", i64, %union.anon }
%"struct.std::__cxx11::basic_string<char>::_Alloc_hider" = type { ptr }
%union.anon = type { i64, [8 x i8] }
%"class.cv::Mat" = type { i32, i32, i32, i32, ptr, ptr, ptr, ptr, ptr, ptr, %"struct.cv::MatSize", %"struct.cv::MatStep" }
%"struct.cv::MatSize" = type { ptr }
%"struct.cv::MatStep" = type { ptr, [2 x i64] }

; Function Attrs: mustprogress uwtable
define hidden noundef zeroext i1 @_ZN2cv16CvCapture_Images13retrieveFrameEiRKNS_12_OutputArrayE(ptr noundef nonnull align 8 dereferenceable(153) %0, i32 noundef %1, ptr noundef nonnull align 8 dereferenceable(24) %2) unnamed_addr #4 align 2 {
  %4 = alloca ptr, align 8
  %5 = alloca i32, align 4
  %6 = alloca ptr, align 8
  store ptr %0, ptr %4, align 8, !tbaa !3
  store i32 %1, ptr %5, align 4, !tbaa !34
  store ptr %2, ptr %6, align 8, !tbaa !35
  %7 = load ptr, ptr %4, align 8
  %8 = getelementptr inbounds nuw %"class.cv::CvCapture_Images", ptr %7, i32 0, i32 6
  %9 = load ptr, ptr %6, align 8, !tbaa !35
  call void @_ZNK2cv3Mat6copyToERKNS_12_OutputArrayE(ptr noundef nonnull align 8 dereferenceable(96) %8, ptr noundef nonnull align 8 dereferenceable(24) %9)
  %10 = getelementptr inbounds nuw %"class.cv::CvCapture_Images", ptr %7, i32 0, i32 7
  %11 = load i8, ptr %10, align 8, !tbaa !26, !range !27, !noundef !28
  %12 = trunc i8 %11 to i1
  br i1 %12, label %13, label %14

13:                                               ; preds = %3
  br label %18

14:                                               ; preds = %3
  %15 = getelementptr inbounds nuw %"class.cv::CvCapture_Images", ptr %7, i32 0, i32 6
  %16 = call noundef zeroext i1 @_ZNK2cv3Mat5emptyEv(ptr noundef nonnull align 8 dereferenceable(96) %15)
  %17 = xor i1 %16, true
  br label %18

18:                                               ; preds = %14, %13
  %19 = phi i1 [ false, %13 ], [ %17, %14 ]
  ret i1 %19
}