; Function Attrs: mustprogress uwtable
define hidden noundef zeroext i1 @_ZN2cv16CvCapture_Images13retrieveFrameEiRKNS_12_OutputArrayE(ptr noundef nonnull align 8 dereferenceable(153) %0, i32 %1, ptr noundef nonnull align 8 dereferenceable(24) %2) unnamed_addr #3 align 2 {
  %4 = getelementptr inbounds nuw i8, ptr %0, i64 56
  tail call void @_ZNK2cv3Mat6copyToERKNS_12_OutputArrayE(ptr noundef nonnull align 8 dereferenceable(96) %4, ptr noundef nonnull align 8 dereferenceable(24) %2)
  %5 = getelementptr inbounds nuw i8, ptr %0, i64 152
  %6 = load i8, ptr %5, align 8, !tbaa !27, !range !28, !noundef !29
  %7 = trunc nuw i8 %6 to i1
  br i1 %7, label %11, label %8

8:                                                ; preds = %3
  %9 = tail call noundef zeroext i1 @_ZNK2cv3Mat5emptyEv(ptr noundef nonnull align 8 dereferenceable(96) %4)
  %10 = xor i1 %9, true
  br label %11

11:                                               ; preds = %3, %8
  %12 = phi i1 [ %10, %8 ], [ false, %3 ]
  ret i1 %12
}